target datalayout = "e-m:e-p270:32:32-p271:32:32-p272:64:64-i64:64-i128:128-f80:128-n8:16:32:64-S128"
target triple = "x86_64-pc-linux-gnu"

@hf_opc_list_mask = internal global i32 0, align 4
@hf_opc_list_pc = internal global i32 0, align 4
@.str.342 = private unnamed_addr constant [1 x i8] zeroinitializer, align 1
@.str.343 = private unnamed_addr constant [2 x i8] c"s\00", align 1
@.str.344 = private unnamed_addr constant [6 x i8] c" (%s)\00", align 1
@.str.362 = private unnamed_addr constant [19 x i8] c" (%u point code%s)\00", align 1

; Function Attrs: null_pointer_is_valid sspstrong uwtable
define internal void @dissect_originating_point_code_list_parameter(ptr noundef %0, ptr noundef %1, ptr noundef %2) #0 {
  %4 = alloca ptr, align 8
  %5 = alloca ptr, align 8
  %6 = alloca ptr, align 8
  %7 = alloca i16, align 2
  %8 = alloca i16, align 2
  %9 = alloca i16, align 2
  %10 = alloca i32, align 4
  %11 = alloca ptr, align 8
  store ptr %0, ptr %4, align 8
  store ptr %1, ptr %5, align 8
  store ptr %2, ptr %6, align 8
  call void @llvm.lifetime.start.p0(i64 2, ptr %7) #6
  call void @llvm.lifetime.start.p0(i64 2, ptr %8) #6
  call void @llvm.lifetime.start.p0(i64 2, ptr %9) #6
  call void @llvm.lifetime.start.p0(i64 4, ptr %10) #6
  call void @llvm.lifetime.start.p0(i64 8, ptr %11) #6
  %12 = load ptr, ptr %4, align 8
  %13 = call zeroext i16 @tvb_get_ntohs(ptr noundef %12, i32 noundef 2)
  store i16 %13, ptr %7, align 2
  %14 = load i16, ptr %7, align 2
  %15 = zext i16 %14 to i32
  %16 = sub i32 %15, 4
  %17 = sdiv i32 %16, 4
  %18 = trunc i32 %17 to i16
  store i16 %18, ptr %8, align 2
  store i32 4, ptr %10, align 4
  store i16 0, ptr %9, align 2
  br label %19

19:                                               ; preds = %49, %3
  %20 = load i16, ptr %9, align 2
  %21 = zext i16 %20 to i32
  %22 = load i16, ptr %8, align 2
  %23 = zext i16 %22 to i32
  %24 = icmp slt i32 %21, %23
  br i1 %24, label %25, label %52

25:                                               ; preds = %19
  %26 = load ptr, ptr %5, align 8
  %27 = load i32, ptr @hf_opc_list_mask, align 4
  %28 = load ptr, ptr %4, align 8
  %29 = load i32, ptr %10, align 4
  %30 = add i32 %29, 0
  %31 = call ptr @proto_tree_add_item(ptr noundef %26, i32 noundef %27, ptr noundef %28, i32 noundef %30, i32 noundef 1, i32 noundef 0)
  %32 = load ptr, ptr %5, align 8
  %33 = load i32, ptr @hf_opc_list_pc, align 4
  %34 = load ptr, ptr %4, align 8
  %35 = load i32, ptr %10, align 4
  %36 = add i32 %35, 1
  %37 = call ptr @proto_tree_add_item(ptr noundef %32, i32 noundef %33, ptr noundef %34, i32 noundef %36, i32 noundef 3, i32 noundef 0)
  store ptr %37, ptr %11, align 8
  %38 = call zeroext i1 @mtp3_pc_structured()
  br i1 %38, label %39, label %46

39:                                               ; preds = %25
  %40 = load ptr, ptr %11, align 8
  %41 = load ptr, ptr %4, align 8
  %42 = load i32, ptr %10, align 4
  %43 = add i32 %42, 1
  %44 = call i32 @tvb_get_ntoh24(ptr noundef %41, i32 noundef %43)
  %45 = call ptr @mtp3_pc_to_str(i32 noundef %44)
  call void (ptr, ptr, ...) @proto_item_append_text(ptr noundef %40, ptr noundef @.str.344, ptr noundef %45)
  br label %46

46:                                               ; preds = %39, %25
  %47 = load i32, ptr %10, align 4
  %48 = add i32 %47, 4
  store i32 %48, ptr %10, align 4
  br label %49

49:                                               ; preds = %46
  %50 = load i16, ptr %9, align 2
  %51 = add i16 %50, 1
  store i16 %51, ptr %9, align 2
  br label %19, !llvm.loop !14

52:                                               ; preds = %19
  %53 = load ptr, ptr %6, align 8
  %54 = load i16, ptr %8, align 2
  %55 = zext i16 %54 to i32
  %56 = load i16, ptr %8, align 2
  %57 = zext i16 %56 to i32
  %58 = icmp eq i32 %57, 1
  %59 = select i1 %58, ptr @.str.342, ptr @.str.343
  call void (ptr, ptr, ...) @proto_item_append_text(ptr noundef %53, ptr noundef @.str.362, i32 noundef %55, ptr noundef %59)
  call void @llvm.lifetime.end.p0(i64 8, ptr %11) #6
  call void @llvm.lifetime.end.p0(i64 4, ptr %10) #6
  call void @llvm.lifetime.end.p0(i64 2, ptr %9) #6
  call void @llvm.lifetime.end.p0(i64 2, ptr %8) #6
  call void @llvm.lifetime.end.p0(i64 2, ptr %7) #6
  ret void
}